; ModuleID = 'source-C-CXX/32/256.c'
source_filename = "source-C-CXX/32/256.c"
target datalayout = "e-m:e-p270:32:32-p271:32:32-p272:64:64-i64:64-f80:128-n8:16:32:64-S128"
target triple = "x86_64-pc-linux-gnu"

@.str = private unnamed_addr constant [3 x i8] c"%d\00", align 1
@.str.1 = private unnamed_addr constant [3 x i8] c"%s\00", align 1

; Function Attrs: nofree nounwind sspstrong uwtable
define dso_local i32 @main(i32 %0, i8** nocapture readnone %1) local_unnamed_addr #0 {
  %3 = alloca [1000 x i8], align 16
  %4 = alloca [1000 x i8], align 16
  %5 = alloca i32, align 4
  %6 = getelementptr inbounds [1000 x i8], [1000 x i8]* %3, i64 0, i64 0
  call void @llvm.lifetime.start.p0i8(i64 1000, i8* nonnull %6) #5
  %7 = getelementptr inbounds [1000 x i8], [1000 x i8]* %4, i64 0, i64 0
  call void @llvm.lifetime.start.p0i8(i64 1000, i8* nonnull %7) #5
  %8 = bitcast i32* %5 to i8*
  call void @llvm.lifetime.start.p0i8(i64 4, i8* nonnull %8) #5
  %9 = call i32 (i8*, ...) @__isoc99_scanf(i8* getelementptr inbounds ([3 x i8], [3 x i8]* @.str, i64 0, i64 0), i32* nonnull %5)
  %10 = load i32, i32* %5, align 4, !tbaa !5
  %11 = icmp sgt i32 %10, 0
  br i1 %11, label %13, label %12

12:                                               ; preds = %21, %2
  call void @llvm.lifetime.end.p0i8(i64 4, i8* nonnull %8) #5
  call void @llvm.lifetime.end.p0i8(i64 1000, i8* nonnull %7) #5
  call void @llvm.lifetime.end.p0i8(i64 1000, i8* nonnull %6) #5
  ret i32 0

13:                                               ; preds = %2, %21
  %14 = phi i32 [ %23, %21 ], [ 0, %2 ]
  %15 = call i32 (i8*, ...) @__isoc99_scanf(i8* getelementptr inbounds ([3 x i8], [3 x i8]* @.str.1, i64 0, i64 0), i8* nonnull %6)
  %16 = call i64 @strlen(i8* noundef nonnull %6) #6
  %17 = trunc i64 %16 to i32
  %18 = icmp sgt i32 %17, 0
  br i1 %18, label %19, label %21

19:                                               ; preds = %13
  %20 = and i64 %16, 4294967295
  br label %26

21:                                               ; preds = %41, %13
  %22 = call i32 @putchar(i32 10)
  %23 = add nuw nsw i32 %14, 1
  %24 = load i32, i32* %5, align 4, !tbaa !5
  %25 = icmp slt i32 %23, %24
  br i1 %25, label %13, label %12, !llvm.loop !9

26:                                               ; preds = %19, %41
  %27 = phi i64 [ 0, %19 ], [ %45, %41 ]
  %28 = getelementptr inbounds [1000 x i8], [1000 x i8]* %3, i64 0, i64 %27
  %29 = load i8, i8* %28, align 1, !tbaa !11
  switch i8 %29, label %30 [
    i8 65, label %33
    i8 84, label %35
    i8 71, label %37
    i8 67, label %39
  ]

30:                                               ; preds = %26
  %31 = getelementptr inbounds [1000 x i8], [1000 x i8]* %4, i64 0, i64 %27
  %32 = load i8, i8* %31, align 1, !tbaa !11
  br label %41

33:                                               ; preds = %26
  %34 = getelementptr inbounds [1000 x i8], [1000 x i8]* %4, i64 0, i64 %27
  store i8 84, i8* %34, align 1, !tbaa !11
  br label %41

35:                                               ; preds = %26
  %36 = getelementptr inbounds [1000 x i8], [1000 x i8]* %4, i64 0, i64 %27
  store i8 65, i8* %36, align 1, !tbaa !11
  br label %41

37:                                               ; preds = %26
  %38 = getelementptr inbounds [1000 x i8], [1000 x i8]* %4, i64 0, i64 %27
  store i8 67, i8* %38, align 1, !tbaa !11
  br label %41

39:                                               ; preds = %26
  %40 = getelementptr inbounds [1000 x i8], [1000 x i8]* %4, i64 0, i64 %27
  store i8 71, i8* %40, align 1, !tbaa !11
  br label %41

41:                                               ; preds = %30, %35, %39, %37, %33
  %42 = phi i8 [ %32, %30 ], [ 65, %35 ], [ 71, %39 ], [ 67, %37 ], [ 84, %33 ]
  %43 = sext i8 %42 to i32
  %44 = call i32 @putchar(i32 %43)
  %45 = add nuw nsw i64 %27, 1
  %46 = icmp eq i64 %45, %20
  br i1 %46, label %21, label %26, !llvm.loop !12
}

; Function Attrs: argmemonly mustprogress nofree nosync nounwind willreturn
declare void @llvm.lifetime.start.p0i8(i64 immarg, i8* nocapture) #1

; Function Attrs: nofree nounwind
declare noundef i32 @__isoc99_scanf(i8* nocapture noundef readonly, ...) local_unnamed_addr #2

; Function Attrs: argmemonly mustprogress nofree nounwind readonly willreturn
declare i64 @strlen(i8* nocapture) local_unnamed_addr #3

; Function Attrs: argmemonly mustprogress nofree nosync nounwind willreturn
declare void @llvm.lifetime.end.p0i8(i64 immarg, i8* nocapture) #1

; Function Attrs: nofree nounwind
declare noundef i32 @putchar(i32 noundef) local_unnamed_addr #4


!llvm.module.flags = !{!0, !1, !2, !3}
!llvm.ident = !{!4}

!0 = !{i32 1, !"wchar_size", i32 4}
!1 = !{i32 7, !"PIC Level", i32 2}
!2 = !{i32 7, !"PIE Level", i32 2}
!3 = !{i32 7, !"uwtable", i32 1}
!4 = !{!"clang version 13.0.0"}
!5 = !{!6, !6, i64 0}
!6 = !{!"int", !7, i64 0}
!7 = !{!"omnipotent char", !8, i64 0}
!8 = !{!"Simple C/C++ TBAA"}
!9 = distinct !{!9, !10}
!10 = !{!"llvm.loop.mustprogress"}
!11 = !{!7, !7, i64 0}
!12 = distinct !{!12, !10}
